; Function Attrs: mustprogress uwtable
define internal noundef i64 @_ZN12_GLOBAL__N_117curlDebugCallbackEPv13curl_infotypePcmS0_(ptr readnone captures(none) %0, i32 %1, ptr noundef %2, i64 noundef %3, ptr noundef nonnull %4) #3 {
  %6 = getelementptr inbounds nuw i8, ptr %2, i64 %3
  %7 = getelementptr inbounds nuw i8, ptr %4, i64 8
  %8 = load ptr, ptr %7, align 8, !tbaa !82
  %9 = load ptr, ptr %4, align 8, !tbaa !82
  %10 = ptrtoint ptr %8 to i64
  %11 = ptrtoint ptr %9 to i64
  %12 = sub i64 %10, %11
  %13 = getelementptr inbounds i8, ptr %9, i64 %12
  tail call void @_ZNSt6vectorIcSaIcEE15_M_range_insertIPcEEvN9__gnu_cxx17__normal_iteratorIS3_S1_EET_S7_St20forward_iterator_tag(ptr noundef nonnull align 8 dereferenceable(24) %4, ptr %13, ptr noundef %2, ptr noundef %6)
  ret i64 0
}